target datalayout = "e-m:e-p270:32:32-p271:32:32-p272:64:64-i64:64-i128:128-f80:128-n8:16:32:64-S128"
target triple = "x86_64-pc-linux-gnu"

%union.anon = type { ptr }
%struct.AVCodecContext = type { ptr, i32, i32, ptr, i32, i32, ptr, ptr, ptr, i64, i32, i32, ptr, i32, %struct.AVRational, %struct.AVRational, %struct.AVRational, i32, i32, i32, i32, i32, %struct.AVRational, i32, i32, i32, i32, i32, i32, i32, i32, i32, i32, i32, ptr, ptr, i32, float, float, float, float, float, float, float, float, float, i32, i32, i32, i32, i32, i32, i32, i32, i32, i32, i32, i32, ptr, ptr, ptr, i32, i32, i32, i32, i32, i32, i32, i32, i32, i32, %struct.AVChannelLayout, i32, i32, i32, i32, i32, i32, i32, i32, ptr, i32, i32, i32, float, float, i32, i32, i32, i32, i32, ptr, i64, i64, float, float, i32, i32, ptr, ptr, i32, i32, i32, i32, i32, ptr, ptr, ptr, ptr, i32, i32, [8 x i64], i32, i32, i32, i32, i32, i32, i32, ptr, ptr, i32, i32, i32, i32, i32, i32, i32, i32, i32, i32, ptr, ptr, i32, i32, ptr, ptr, ptr, ptr, i32, i32, i64, i32, i32, i64, ptr, i64, ptr, i32, ptr, i32 }
%struct.AVRational = type { i32, i32 }
%struct.AVChannelLayout = type { i32, i32, %union.anon.0, ptr }
%union.anon.0 = type { i64 }
%struct.AVSubtitle = type { i16, i32, i32, i32, ptr, i64 }
%struct.AVSubtitleRect = type { i32, i32, i32, i32, i32, [4 x ptr], [4 x i32], i32, i32, ptr, ptr }

@.str = private unnamed_addr constant [4 x i8] c"ssa\00", align 1
@.str.1 = private unnamed_addr constant [41 x i8] c"ASS (Advanced SubStation Alpha) subtitle\00", align 1
@ff_ssa_encoder = constant { { ptr, ptr, i32, i32, i32, i8, [3 x i8], ptr, ptr, ptr, ptr, ptr, ptr, ptr, ptr }, i8, i8, i8, i8, i32, ptr, ptr, ptr, ptr, %union.anon, ptr, ptr, ptr, ptr, ptr, ptr } { { ptr, ptr, i32, i32, i32, i8, [3 x i8], ptr, ptr, ptr, ptr, ptr, ptr, ptr, ptr } { ptr @.str, ptr @.str.1, i32 3, i32 94230, i32 0, i8 0, [3 x i8] zeroinitializer, ptr null, ptr null, ptr null, ptr null, ptr null, ptr null, ptr null, ptr null }, i8 0, i8 0, i8 0, i8 -128, i32 0, ptr null, ptr null, ptr null, ptr @ass_encode_init, %union.anon { ptr @ass_encode_frame }, ptr null, ptr null, ptr null, ptr null, ptr null, ptr null }, align 8
@.str.2 = private unnamed_addr constant [4 x i8] c"ass\00", align 1
@ff_ass_encoder = constant { { ptr, ptr, i32, i32, i32, i8, [3 x i8], ptr, ptr, ptr, ptr, ptr, ptr, ptr, ptr }, i8, i8, i8, i8, i32, ptr, ptr, ptr, ptr, %union.anon, ptr, ptr, ptr, ptr, ptr, ptr } { { ptr, ptr, i32, i32, i32, i8, [3 x i8], ptr, ptr, ptr, ptr, ptr, ptr, ptr, ptr } { ptr @.str.2, ptr @.str.1, i32 3, i32 94230, i32 0, i8 0, [3 x i8] zeroinitializer, ptr null, ptr null, ptr null, ptr null, ptr null, ptr null, ptr null, ptr null }, i8 0, i8 0, i8 0, i8 -128, i32 0, ptr null, ptr null, ptr null, ptr @ass_encode_init, %union.anon { ptr @ass_encode_frame }, ptr null, ptr null, ptr null, ptr null, ptr null, ptr null }, align 8
@.str.3 = private unnamed_addr constant [51 x i8] c"Only one rect per AVSubtitle is supported in ASS.\0A\00", align 1
@.str.4 = private unnamed_addr constant [35 x i8] c"Only SUBTITLE_ASS type supported.\0A\00", align 1
@.str.5 = private unnamed_addr constant [33 x i8] c"Buffer too small for ASS event.\0A\00", align 1

; Function Attrs: cold nounwind optsize uwtable
define internal i32 @ass_encode_init(ptr noundef %0) #0 {
  %2 = alloca i32, align 4
  %3 = alloca ptr, align 8
  store ptr %0, ptr %3, align 8, !tbaa !4
  %4 = load ptr, ptr %3, align 8, !tbaa !4
  %5 = getelementptr inbounds nuw %struct.AVCodecContext, ptr %4, i32 0, i32 134
  %6 = load i32, ptr %5, align 4, !tbaa !9
  %7 = add nsw i32 %6, 1
  %8 = sext i32 %7 to i64
  %9 = call noalias ptr @av_malloc(i64 noundef %8)
  %10 = load ptr, ptr %3, align 8, !tbaa !4
  %11 = getelementptr inbounds nuw %struct.AVCodecContext, ptr %10, i32 0, i32 12
  store ptr %9, ptr %11, align 8, !tbaa !29
  %12 = load ptr, ptr %3, align 8, !tbaa !4
  %13 = getelementptr inbounds nuw %struct.AVCodecContext, ptr %12, i32 0, i32 12
  %14 = load ptr, ptr %13, align 8, !tbaa !29
  %15 = icmp ne ptr %14, null
  br i1 %15, label %17, label %16

16:                                               ; preds = %1
  store i32 -12, ptr %2, align 4
  br label %41

17:                                               ; preds = %1
  %18 = load ptr, ptr %3, align 8, !tbaa !4
  %19 = getelementptr inbounds nuw %struct.AVCodecContext, ptr %18, i32 0, i32 12
  %20 = load ptr, ptr %19, align 8, !tbaa !29
  %21 = load ptr, ptr %3, align 8, !tbaa !4
  %22 = getelementptr inbounds nuw %struct.AVCodecContext, ptr %21, i32 0, i32 135
  %23 = load ptr, ptr %22, align 8, !tbaa !30
  %24 = load ptr, ptr %3, align 8, !tbaa !4
  %25 = getelementptr inbounds nuw %struct.AVCodecContext, ptr %24, i32 0, i32 134
  %26 = load i32, ptr %25, align 4, !tbaa !9
  %27 = sext i32 %26 to i64
  call void @llvm.memcpy.p0.p0.i64(ptr align 1 %20, ptr align 1 %23, i64 %27, i1 false)
  %28 = load ptr, ptr %3, align 8, !tbaa !4
  %29 = getelementptr inbounds nuw %struct.AVCodecContext, ptr %28, i32 0, i32 134
  %30 = load i32, ptr %29, align 4, !tbaa !9
  %31 = load ptr, ptr %3, align 8, !tbaa !4
  %32 = getelementptr inbounds nuw %struct.AVCodecContext, ptr %31, i32 0, i32 13
  store i32 %30, ptr %32, align 8, !tbaa !31
  %33 = load ptr, ptr %3, align 8, !tbaa !4
  %34 = getelementptr inbounds nuw %struct.AVCodecContext, ptr %33, i32 0, i32 12
  %35 = load ptr, ptr %34, align 8, !tbaa !29
  %36 = load ptr, ptr %3, align 8, !tbaa !4
  %37 = getelementptr inbounds nuw %struct.AVCodecContext, ptr %36, i32 0, i32 13
  %38 = load i32, ptr %37, align 8, !tbaa !31
  %39 = sext i32 %38 to i64
  %40 = getelementptr inbounds i8, ptr %35, i64 %39
  store i8 0, ptr %40, align 1, !tbaa !32
  store i32 0, ptr %2, align 4
  br label %41

41:                                               ; preds = %17, %16
  %42 = load i32, ptr %2, align 4
  ret i32 %42
}

; Function Attrs: nounwind uwtable
define internal i32 @ass_encode_frame(ptr noundef %0, ptr noundef %1, i32 noundef %2, ptr noundef %3) #1 {
  %5 = alloca i32, align 4
  %6 = alloca ptr, align 8
  %7 = alloca ptr, align 8
  %8 = alloca i32, align 4
  %9 = alloca ptr, align 8
  %10 = alloca i64, align 8
  %11 = alloca i32, align 4
  store ptr %0, ptr %6, align 8, !tbaa !4
  store ptr %1, ptr %7, align 8, !tbaa !33
  store i32 %2, ptr %8, align 4, !tbaa !34
  store ptr %3, ptr %9, align 8, !tbaa !35
  call void @llvm.lifetime.start.p0(i64 8, ptr %10) #5
  %12 = load ptr, ptr %9, align 8, !tbaa !35
  %13 = getelementptr inbounds nuw %struct.AVSubtitle, ptr %12, i32 0, i32 3
  %14 = load i32, ptr %13, align 4, !tbaa !37
  %15 = icmp ne i32 %14, 1
  br i1 %15, label %16, label %18

16:                                               ; preds = %4
  %17 = load ptr, ptr %6, align 8, !tbaa !4
  call void (ptr, i32, ptr, ...) @av_log(ptr noundef %17, i32 noundef 16, ptr noundef @.str.3)
  store i32 -1094995529, ptr %5, align 4
  store i32 1, ptr %11, align 4
  br label %50

18:                                               ; preds = %4
  %19 = load ptr, ptr %9, align 8, !tbaa !35
  %20 = getelementptr inbounds nuw %struct.AVSubtitle, ptr %19, i32 0, i32 4
  %21 = load ptr, ptr %20, align 8, !tbaa !41
  %22 = getelementptr inbounds ptr, ptr %21, i64 0
  %23 = load ptr, ptr %22, align 8, !tbaa !42
  %24 = getelementptr inbounds nuw %struct.AVSubtitleRect, ptr %23, i32 0, i32 8
  %25 = load i32, ptr %24, align 4, !tbaa !44
  %26 = icmp ne i32 %25, 3
  br i1 %26, label %27, label %29

27:                                               ; preds = %18
  %28 = load ptr, ptr %6, align 8, !tbaa !4
  call void (ptr, i32, ptr, ...) @av_log(ptr noundef %28, i32 noundef 16, ptr noundef @.str.4)
  store i32 -22, ptr %5, align 4
  store i32 1, ptr %11, align 4
  br label %50

29:                                               ; preds = %18
  %30 = load ptr, ptr %7, align 8, !tbaa !33
  %31 = load ptr, ptr %9, align 8, !tbaa !35
  %32 = getelementptr inbounds nuw %struct.AVSubtitle, ptr %31, i32 0, i32 4
  %33 = load ptr, ptr %32, align 8, !tbaa !41
  %34 = getelementptr inbounds ptr, ptr %33, i64 0
  %35 = load ptr, ptr %34, align 8, !tbaa !42
  %36 = getelementptr inbounds nuw %struct.AVSubtitleRect, ptr %35, i32 0, i32 10
  %37 = load ptr, ptr %36, align 8, !tbaa !46
  %38 = load i32, ptr %8, align 4, !tbaa !34
  %39 = sext i32 %38 to i64
  %40 = call i64 @av_strlcpy(ptr noundef %30, ptr noundef %37, i64 noundef %39)
  store i64 %40, ptr %10, align 8, !tbaa !47
  %41 = load i64, ptr %10, align 8, !tbaa !47
  %42 = load i32, ptr %8, align 4, !tbaa !34
  %43 = sext i32 %42 to i64
  %44 = icmp uge i64 %41, %43
  br i1 %44, label %45, label %47

45:                                               ; preds = %29
  %46 = load ptr, ptr %6, align 8, !tbaa !4
  call void (ptr, i32, ptr, ...) @av_log(ptr noundef %46, i32 noundef 16, ptr noundef @.str.5)
  store i32 -1397118274, ptr %5, align 4
  store i32 1, ptr %11, align 4
  br label %50

47:                                               ; preds = %29
  %48 = load i64, ptr %10, align 8, !tbaa !47
  %49 = trunc i64 %48 to i32
  store i32 %49, ptr %5, align 4
  store i32 1, ptr %11, align 4
  br label %50

50:                                               ; preds = %47, %45, %27, %16
  call void @llvm.lifetime.end.p0(i64 8, ptr %10) #5
  %51 = load i32, ptr %5, align 4
  ret i32 %51
}

declare noalias ptr @av_malloc(i64 noundef) #2

; Function Attrs: nocallback nofree nounwind willreturn memory(argmem: readwrite)
declare void @llvm.memcpy.p0.p0.i64(ptr noalias writeonly captures(none), ptr noalias readonly captures(none), i64, i1 immarg) #3

; Function Attrs: nocallback nofree nosync nounwind willreturn memory(argmem: readwrite)
declare void @llvm.lifetime.start.p0(i64 immarg, ptr captures(none)) #4

declare void @av_log(ptr noundef, i32 noundef, ptr noundef, ...) #2

declare i64 @av_strlcpy(ptr noundef, ptr noundef, i64 noundef) #2

; Function Attrs: nocallback nofree nosync nounwind willreturn memory(argmem: readwrite)
declare void @llvm.lifetime.end.p0(i64 immarg, ptr captures(none)) #4


!llvm.module.flags = !{!0, !1, !2, !3}

!0 = !{i32 1, !"wchar_size", i32 4}
!1 = !{i32 8, !"PIC Level", i32 2}
!2 = !{i32 7, !"uwtable", i32 2}
!3 = !{i32 1, !"override-stack-alignment", i32 16}
!4 = !{!5, !5, i64 0}
!5 = !{!"p1 _ZTS14AVCodecContext", !6, i64 0}
!6 = !{!"any pointer", !7, i64 0}
!7 = !{!"omnipotent char", !8, i64 0}
!8 = !{!"Simple C/C++ TBAA"}
!9 = !{!10, !12, i64 748}
!10 = !{!"AVCodecContext", !11, i64 0, !12, i64 8, !12, i64 12, !13, i64 16, !12, i64 24, !12, i64 28, !6, i64 32, !14, i64 40, !6, i64 48, !15, i64 56, !12, i64 64, !12, i64 68, !16, i64 72, !12, i64 80, !17, i64 84, !17, i64 92, !17, i64 100, !12, i64 108, !12, i64 112, !12, i64 116, !12, i64 120, !12, i64 124, !17, i64 128, !12, i64 136, !12, i64 140, !12, i64 144, !12, i64 148, !12, i64 152, !12, i64 156, !12, i64 160, !12, i64 164, !12, i64 168, !12, i64 172, !12, i64 176, !6, i64 184, !6, i64 192, !12, i64 200, !18, i64 204, !18, i64 208, !18, i64 212, !18, i64 216, !18, i64 220, !18, i64 224, !18, i64 228, !18, i64 232, !18, i64 236, !12, i64 240, !12, i64 244, !12, i64 248, !12, i64 252, !12, i64 256, !12, i64 260, !12, i64 264, !12, i64 268, !12, i64 272, !12, i64 276, !12, i64 280, !12, i64 284, !19, i64 288, !19, i64 296, !19, i64 304, !12, i64 312, !12, i64 316, !12, i64 320, !12, i64 324, !12, i64 328, !12, i64 332, !12, i64 336, !12, i64 340, !12, i64 344, !12, i64 348, !20, i64 352, !12, i64 376, !12, i64 380, !12, i64 384, !12, i64 388, !12, i64 392, !12, i64 396, !12, i64 400, !12, i64 404, !6, i64 408, !12, i64 416, !12, i64 420, !12, i64 424, !18, i64 428, !18, i64 432, !12, i64 436, !12, i64 440, !12, i64 444, !12, i64 448, !12, i64 452, !21, i64 456, !15, i64 464, !15, i64 472, !18, i64 480, !18, i64 484, !12, i64 488, !12, i64 492, !16, i64 496, !16, i64 504, !12, i64 512, !12, i64 516, !12, i64 520, !12, i64 524, !12, i64 528, !22, i64 536, !6, i64 544, !23, i64 552, !23, i64 560, !12, i64 568, !12, i64 572, !7, i64 576, !12, i64 640, !12, i64 644, !12, i64 648, !12, i64 652, !12, i64 656, !12, i64 660, !12, i64 664, !6, i64 672, !6, i64 680, !12, i64 688, !12, i64 692, !12, i64 696, !12, i64 700, !12, i64 704, !12, i64 708, !12, i64 712, !12, i64 716, !12, i64 720, !12, i64 724, !24, i64 728, !16, i64 736, !12, i64 744, !12, i64 748, !16, i64 752, !16, i64 760, !16, i64 768, !25, i64 776, !12, i64 784, !12, i64 788, !15, i64 792, !12, i64 800, !12, i64 804, !15, i64 808, !6, i64 816, !15, i64 824, !26, i64 832, !12, i64 840, !27, i64 848, !12, i64 856}
!11 = !{!"p1 _ZTS7AVClass", !6, i64 0}
!12 = !{!"int", !7, i64 0}
!13 = !{!"p1 _ZTS7AVCodec", !6, i64 0}
!14 = !{!"p1 _ZTS15AVCodecInternal", !6, i64 0}
!15 = !{!"long", !7, i64 0}
!16 = !{!"p1 omnipotent char", !6, i64 0}
!17 = !{!"AVRational", !12, i64 0, !12, i64 4}
!18 = !{!"float", !7, i64 0}
!19 = !{!"p1 short", !6, i64 0}
!20 = !{!"AVChannelLayout", !12, i64 0, !12, i64 4, !7, i64 8, !6, i64 16}
!21 = !{!"p1 _ZTS10RcOverride", !6, i64 0}
!22 = !{!"p1 _ZTS9AVHWAccel", !6, i64 0}
!23 = !{!"p1 _ZTS11AVBufferRef", !6, i64 0}
!24 = !{!"p1 _ZTS17AVCodecDescriptor", !6, i64 0}
!25 = !{!"p1 _ZTS16AVPacketSideData", !6, i64 0}
!26 = !{!"p1 int", !6, i64 0}
!27 = !{!"p2 _ZTS15AVFrameSideData", !28, i64 0}
!28 = !{!"any p2 pointer", !6, i64 0}
!29 = !{!10, !16, i64 72}
!30 = !{!10, !16, i64 752}
!31 = !{!10, !12, i64 80}
!32 = !{!7, !7, i64 0}
!33 = !{!16, !16, i64 0}
!34 = !{!12, !12, i64 0}
!35 = !{!36, !36, i64 0}
!36 = !{!"p1 _ZTS10AVSubtitle", !6, i64 0}
!37 = !{!38, !12, i64 12}
!38 = !{!"AVSubtitle", !39, i64 0, !12, i64 4, !12, i64 8, !12, i64 12, !40, i64 16, !15, i64 24}
!39 = !{!"short", !7, i64 0}
!40 = !{!"p2 _ZTS14AVSubtitleRect", !28, i64 0}
!41 = !{!38, !40, i64 16}
!42 = !{!43, !43, i64 0}
!43 = !{!"p1 _ZTS14AVSubtitleRect", !6, i64 0}
!44 = !{!45, !12, i64 76}
!45 = !{!"AVSubtitleRect", !12, i64 0, !12, i64 4, !12, i64 8, !12, i64 12, !12, i64 16, !7, i64 24, !7, i64 56, !12, i64 72, !12, i64 76, !16, i64 80, !16, i64 88}
!46 = !{!45, !16, i64 88}
!47 = !{!15, !15, i64 0}
