; ModuleID = 'bench/ffmpeg/original/assenc.ll'
source_filename = "bench/ffmpeg/original/assenc.ll"
target datalayout = "e-m:e-p270:32:32-p271:32:32-p272:64:64-i64:64-i128:128-f80:128-n8:16:32:64-S128"
target triple = "x86_64-pc-linux-gnu"

%union.anon = type { ptr }

@.str = private unnamed_addr constant [4 x i8] c"ssa\00", align 1
@.str.1 = private unnamed_addr constant [41 x i8] c"ASS (Advanced SubStation Alpha) subtitle\00", align 1
@ff_ssa_encoder = local_unnamed_addr constant { { ptr, ptr, i32, i32, i32, i8, [3 x i8], ptr, ptr, ptr, ptr, ptr, ptr, ptr, ptr }, i8, i8, i8, i8, i32, ptr, ptr, ptr, ptr, %union.anon, ptr, ptr, ptr, ptr, ptr, ptr } { { ptr, ptr, i32, i32, i32, i8, [3 x i8], ptr, ptr, ptr, ptr, ptr, ptr, ptr, ptr } { ptr @.str, ptr @.str.1, i32 3, i32 94230, i32 0, i8 0, [3 x i8] zeroinitializer, ptr null, ptr null, ptr null, ptr null, ptr null, ptr null, ptr null, ptr null }, i8 0, i8 0, i8 0, i8 -128, i32 0, ptr null, ptr null, ptr null, ptr @ass_encode_init, %union.anon { ptr @ass_encode_frame }, ptr null, ptr null, ptr null, ptr null, ptr null, ptr null }, align 8
@.str.2 = private unnamed_addr constant [4 x i8] c"ass\00", align 1
@ff_ass_encoder = local_unnamed_addr constant { { ptr, ptr, i32, i32, i32, i8, [3 x i8], ptr, ptr, ptr, ptr, ptr, ptr, ptr, ptr }, i8, i8, i8, i8, i32, ptr, ptr, ptr, ptr, %union.anon, ptr, ptr, ptr, ptr, ptr, ptr } { { ptr, ptr, i32, i32, i32, i8, [3 x i8], ptr, ptr, ptr, ptr, ptr, ptr, ptr, ptr } { ptr @.str.2, ptr @.str.1, i32 3, i32 94230, i32 0, i8 0, [3 x i8] zeroinitializer, ptr null, ptr null, ptr null, ptr null, ptr null, ptr null, ptr null, ptr null }, i8 0, i8 0, i8 0, i8 -128, i32 0, ptr null, ptr null, ptr null, ptr @ass_encode_init, %union.anon { ptr @ass_encode_frame }, ptr null, ptr null, ptr null, ptr null, ptr null, ptr null }, align 8
@.str.3 = private unnamed_addr constant [51 x i8] c"Only one rect per AVSubtitle is supported in ASS.\0A\00", align 1
@.str.4 = private unnamed_addr constant [35 x i8] c"Only SUBTITLE_ASS type supported.\0A\00", align 1
@.str.5 = private unnamed_addr constant [33 x i8] c"Buffer too small for ASS event.\0A\00", align 1

; Function Attrs: cold nounwind optsize uwtable
define internal range(i32 -12, 1) i32 @ass_encode_init(ptr noundef captures(none) initializes((72, 80)) %0) #0 {
  %2 = getelementptr inbounds nuw i8, ptr %0, i64 748
  %3 = load i32, ptr %2, align 4, !tbaa !4
  %4 = add nsw i32 %3, 1
  %5 = sext i32 %4 to i64
  %6 = tail call noalias ptr @av_malloc(i64 noundef %5) #4
  %7 = getelementptr inbounds nuw i8, ptr %0, i64 72
  store ptr %6, ptr %7, align 8, !tbaa !27
  %.not = icmp eq ptr %6, null
  br i1 %.not, label %15, label %8

8:                                                ; preds = %1
  %9 = getelementptr inbounds nuw i8, ptr %0, i64 752
  %10 = load ptr, ptr %9, align 8, !tbaa !28
  %11 = load i32, ptr %2, align 4, !tbaa !4
  %12 = sext i32 %11 to i64
  tail call void @llvm.memcpy.p0.p0.i64(ptr nonnull align 1 %6, ptr align 1 %10, i64 %12, i1 false)
  %13 = getelementptr inbounds nuw i8, ptr %0, i64 80
  store i32 %11, ptr %13, align 8, !tbaa !29
  %14 = getelementptr inbounds i8, ptr %6, i64 %12
  store i8 0, ptr %14, align 1, !tbaa !30
  br label %15

15:                                               ; preds = %1, %8
  %.0 = phi i32 [ 0, %8 ], [ -12, %1 ]
  ret i32 %.0
}

; Function Attrs: nounwind uwtable
define internal i32 @ass_encode_frame(ptr noundef %0, ptr noundef %1, i32 noundef %2, ptr noundef readonly captures(none) %3) #1 {
  %5 = getelementptr inbounds nuw i8, ptr %3, i64 12
  %6 = load i32, ptr %5, align 4, !tbaa !31
  %.not = icmp eq i32 %6, 1
  br i1 %.not, label %8, label %7

7:                                                ; preds = %4
  tail call void (ptr, i32, ptr, ...) @av_log(ptr noundef %0, i32 noundef 16, ptr noundef nonnull @.str.3) #4
  br label %23

8:                                                ; preds = %4
  %9 = getelementptr inbounds nuw i8, ptr %3, i64 16
  %10 = load ptr, ptr %9, align 8, !tbaa !35
  %11 = load ptr, ptr %10, align 8, !tbaa !36
  %12 = getelementptr inbounds nuw i8, ptr %11, i64 76
  %13 = load i32, ptr %12, align 4, !tbaa !38
  %.not12 = icmp eq i32 %13, 3
  br i1 %.not12, label %15, label %14

14:                                               ; preds = %8
  tail call void (ptr, i32, ptr, ...) @av_log(ptr noundef %0, i32 noundef 16, ptr noundef nonnull @.str.4) #4
  br label %23

15:                                               ; preds = %8
  %16 = getelementptr inbounds nuw i8, ptr %11, i64 88
  %17 = load ptr, ptr %16, align 8, !tbaa !40
  %18 = sext i32 %2 to i64
  %19 = tail call i64 @av_strlcpy(ptr noundef %1, ptr noundef %17, i64 noundef %18) #4
  %.not13 = icmp ult i64 %19, %18
  br i1 %.not13, label %21, label %20

20:                                               ; preds = %15
  tail call void (ptr, i32, ptr, ...) @av_log(ptr noundef %0, i32 noundef 16, ptr noundef nonnull @.str.5) #4
  br label %23

21:                                               ; preds = %15
  %22 = trunc i64 %19 to i32
  br label %23

23:                                               ; preds = %21, %20, %14, %7
  %.0 = phi i32 [ -1094995529, %7 ], [ -22, %14 ], [ -1397118274, %20 ], [ %22, %21 ]
  ret i32 %.0
}

declare noalias ptr @av_malloc(i64 noundef) local_unnamed_addr #2

; Function Attrs: mustprogress nocallback nofree nounwind willreturn memory(argmem: readwrite)
declare void @llvm.memcpy.p0.p0.i64(ptr noalias writeonly captures(none), ptr noalias readonly captures(none), i64, i1 immarg) #3

declare void @av_log(ptr noundef, i32 noundef, ptr noundef, ...) local_unnamed_addr #2

declare i64 @av_strlcpy(ptr noundef, ptr noundef, i64 noundef) local_unnamed_addr #2


!llvm.module.flags = !{!0, !1, !2, !3}

!0 = !{i32 1, !"wchar_size", i32 4}
!1 = !{i32 8, !"PIC Level", i32 2}
!2 = !{i32 7, !"uwtable", i32 2}
!3 = !{i32 1, !"override-stack-alignment", i32 16}
!4 = !{!5, !10, i64 748}
!5 = !{!"AVCodecContext", !6, i64 0, !10, i64 8, !10, i64 12, !11, i64 16, !10, i64 24, !10, i64 28, !7, i64 32, !12, i64 40, !7, i64 48, !13, i64 56, !10, i64 64, !10, i64 68, !14, i64 72, !10, i64 80, !15, i64 84, !15, i64 92, !15, i64 100, !10, i64 108, !10, i64 112, !10, i64 116, !10, i64 120, !10, i64 124, !15, i64 128, !10, i64 136, !10, i64 140, !10, i64 144, !10, i64 148, !10, i64 152, !10, i64 156, !10, i64 160, !10, i64 164, !10, i64 168, !10, i64 172, !10, i64 176, !7, i64 184, !7, i64 192, !10, i64 200, !16, i64 204, !16, i64 208, !16, i64 212, !16, i64 216, !16, i64 220, !16, i64 224, !16, i64 228, !16, i64 232, !16, i64 236, !10, i64 240, !10, i64 244, !10, i64 248, !10, i64 252, !10, i64 256, !10, i64 260, !10, i64 264, !10, i64 268, !10, i64 272, !10, i64 276, !10, i64 280, !10, i64 284, !17, i64 288, !17, i64 296, !17, i64 304, !10, i64 312, !10, i64 316, !10, i64 320, !10, i64 324, !10, i64 328, !10, i64 332, !10, i64 336, !10, i64 340, !10, i64 344, !10, i64 348, !18, i64 352, !10, i64 376, !10, i64 380, !10, i64 384, !10, i64 388, !10, i64 392, !10, i64 396, !10, i64 400, !10, i64 404, !7, i64 408, !10, i64 416, !10, i64 420, !10, i64 424, !16, i64 428, !16, i64 432, !10, i64 436, !10, i64 440, !10, i64 444, !10, i64 448, !10, i64 452, !19, i64 456, !13, i64 464, !13, i64 472, !16, i64 480, !16, i64 484, !10, i64 488, !10, i64 492, !14, i64 496, !14, i64 504, !10, i64 512, !10, i64 516, !10, i64 520, !10, i64 524, !10, i64 528, !20, i64 536, !7, i64 544, !21, i64 552, !21, i64 560, !10, i64 568, !10, i64 572, !8, i64 576, !10, i64 640, !10, i64 644, !10, i64 648, !10, i64 652, !10, i64 656, !10, i64 660, !10, i64 664, !7, i64 672, !7, i64 680, !10, i64 688, !10, i64 692, !10, i64 696, !10, i64 700, !10, i64 704, !10, i64 708, !10, i64 712, !10, i64 716, !10, i64 720, !10, i64 724, !22, i64 728, !14, i64 736, !10, i64 744, !10, i64 748, !14, i64 752, !14, i64 760, !14, i64 768, !23, i64 776, !10, i64 784, !10, i64 788, !13, i64 792, !10, i64 800, !10, i64 804, !13, i64 808, !7, i64 816, !13, i64 824, !24, i64 832, !10, i64 840, !25, i64 848, !10, i64 856}
!6 = !{!"p1 _ZTS7AVClass", !7, i64 0}
!7 = !{!"any pointer", !8, i64 0}
!8 = !{!"omnipotent char", !9, i64 0}
!9 = !{!"Simple C/C++ TBAA"}
!10 = !{!"int", !8, i64 0}
!11 = !{!"p1 _ZTS7AVCodec", !7, i64 0}
!12 = !{!"p1 _ZTS15AVCodecInternal", !7, i64 0}
!13 = !{!"long", !8, i64 0}
!14 = !{!"p1 omnipotent char", !7, i64 0}
!15 = !{!"AVRational", !10, i64 0, !10, i64 4}
!16 = !{!"float", !8, i64 0}
!17 = !{!"p1 short", !7, i64 0}
!18 = !{!"AVChannelLayout", !10, i64 0, !10, i64 4, !8, i64 8, !7, i64 16}
!19 = !{!"p1 _ZTS10RcOverride", !7, i64 0}
!20 = !{!"p1 _ZTS9AVHWAccel", !7, i64 0}
!21 = !{!"p1 _ZTS11AVBufferRef", !7, i64 0}
!22 = !{!"p1 _ZTS17AVCodecDescriptor", !7, i64 0}
!23 = !{!"p1 _ZTS16AVPacketSideData", !7, i64 0}
!24 = !{!"p1 int", !7, i64 0}
!25 = !{!"p2 _ZTS15AVFrameSideData", !26, i64 0}
!26 = !{!"any p2 pointer", !7, i64 0}
!27 = !{!5, !14, i64 72}
!28 = !{!5, !14, i64 752}
!29 = !{!5, !10, i64 80}
!30 = !{!8, !8, i64 0}
!31 = !{!32, !10, i64 12}
!32 = !{!"AVSubtitle", !33, i64 0, !10, i64 4, !10, i64 8, !10, i64 12, !34, i64 16, !13, i64 24}
!33 = !{!"short", !8, i64 0}
!34 = !{!"p2 _ZTS14AVSubtitleRect", !26, i64 0}
!35 = !{!32, !34, i64 16}
!36 = !{!37, !37, i64 0}
!37 = !{!"p1 _ZTS14AVSubtitleRect", !7, i64 0}
!38 = !{!39, !10, i64 76}
!39 = !{!"AVSubtitleRect", !10, i64 0, !10, i64 4, !10, i64 8, !10, i64 12, !10, i64 16, !8, i64 24, !8, i64 56, !10, i64 72, !10, i64 76, !14, i64 80, !14, i64 88}
!40 = !{!39, !14, i64 88}
